; Function Attrs: nounwind uwtable
define noundef ptr @Sfm_NtkDfs(ptr noundef %0, ptr noundef %1, ptr noundef %2, ptr noundef initializes((4, 8)) %3, i32 noundef %4) local_unnamed_addr #2 {
  %6 = getelementptr inbounds nuw i8, ptr %3, i64 4
  store i32 0, ptr %6, align 4, !tbaa !20
  %7 = getelementptr inbounds nuw i8, ptr %0, i64 20
  %8 = load i32, ptr %7, align 4, !tbaa !35
  %9 = tail call noalias dereferenceable_or_null(16) ptr @malloc(i64 noundef 16) #9
  %10 = add i32 %8, -1
  %or.cond.i = icmp ult i32 %10, 15
  %spec.store.select.i = select i1 %or.cond.i, i32 16, i32 %8
  %11 = getelementptr inbounds nuw i8, ptr %9, i64 4
  store i32 0, ptr %11, align 4, !tbaa !20
  store i32 %spec.store.select.i, ptr %9, align 8, !tbaa !32
  %.not.i = icmp eq i32 %spec.store.select.i, 0
  br i1 %.not.i, label %Vec_IntAlloc.exit, label %12

12:                                               ; preds = %5
  %13 = sext i32 %spec.store.select.i to i64
  %14 = shl nsw i64 %13, 2
  %15 = tail call noalias ptr @malloc(i64 noundef %14) #9
  br label %Vec_IntAlloc.exit

Vec_IntAlloc.exit:                                ; preds = %5, %12
  %16 = phi ptr [ %15, %12 ], [ null, %5 ]
  %17 = getelementptr inbounds nuw i8, ptr %9, i64 8
  store ptr %16, ptr %17, align 8, !tbaa !21
  %18 = getelementptr inbounds nuw i8, ptr %0, i64 232
  %19 = load i32, ptr %18, align 8, !tbaa !28
  %20 = add nsw i32 %19, 1
  store i32 %20, ptr %18, align 8, !tbaa !28
  %.not = icmp eq i32 %4, 0
  br i1 %.not, label %.critedge, label %.preheader

.preheader:                                       ; preds = %Vec_IntAlloc.exit
  %21 = getelementptr i8, ptr %1, i64 4
  %.val2930 = load i32, ptr %21, align 4, !tbaa !36
  %22 = icmp sgt i32 %.val2930, 0
  br i1 %22, label %.lr.ph, label %.critedge

.lr.ph:                                           ; preds = %.preheader
  %23 = getelementptr i8, ptr %1, i64 8
  br label %24

24:                                               ; preds = %.lr.ph, %24
  %indvars.iv = phi i64 [ 0, %.lr.ph ], [ %indvars.iv.next, %24 ]
  %.val = load ptr, ptr %23, align 8, !tbaa !19
  %25 = getelementptr %struct.Vec_Int_t_, ptr %.val, i64 %indvars.iv, i32 2
  %.val27 = load ptr, ptr %25, align 8, !tbaa !21
  %26 = load i32, ptr %.val27, align 4, !tbaa !22
  tail call void @Sfm_NtkDfs_rec(ptr noundef %0, i32 noundef %26, ptr noundef nonnull %9, ptr noundef nonnull %1, ptr noundef %2, ptr noundef %3)
  %indvars.iv.next = add nuw nsw i64 %indvars.iv, 1
  %.val29 = load i32, ptr %21, align 4, !tbaa !36
  %27 = sext i32 %.val29 to i64
  %28 = icmp slt i64 %indvars.iv.next, %27
  br i1 %28, label %24, label %.critedge, !llvm.loop !37

.critedge:                                        ; preds = %24, %.preheader, %Vec_IntAlloc.exit
  %29 = getelementptr inbounds nuw i8, ptr %0, i64 12
  %30 = load i32, ptr %29, align 4, !tbaa !38
  %31 = icmp sgt i32 %30, 0
  br i1 %31, label %.lr.ph33, label %._crit_edge

.lr.ph33:                                         ; preds = %.critedge
  %32 = load i32, ptr %7, align 4, !tbaa !35
  %33 = sub i32 %32, %30
  %34 = getelementptr i8, ptr %0, i64 64
  %35 = sext i32 %33 to i64
  br label %36

36:                                               ; preds = %.lr.ph33, %36
  %indvars.iv35 = phi i64 [ %35, %.lr.ph33 ], [ %indvars.iv.next36, %36 ]
  %.val28 = load ptr, ptr %34, align 8, !tbaa !19
  %37 = getelementptr %struct.Vec_Int_t_, ptr %.val28, i64 %indvars.iv35, i32 2
  %.val2.i = load ptr, ptr %37, align 8, !tbaa !21
  %38 = load i32, ptr %.val2.i, align 4, !tbaa !22
  tail call void @Sfm_NtkDfs_rec(ptr noundef nonnull %0, i32 noundef %38, ptr noundef nonnull %9, ptr noundef %1, ptr noundef %2, ptr noundef %3)
  %indvars.iv.next36 = add nsw i64 %indvars.iv35, 1
  %39 = load i32, ptr %7, align 4, !tbaa !35
  %40 = sext i32 %39 to i64
  %41 = icmp slt i64 %indvars.iv.next36, %40
  br i1 %41, label %36, label %._crit_edge, !llvm.loop !39

._crit_edge:                                      ; preds = %36, %.critedge
  ret ptr %9
}